; Function Attrs: mustprogress uwtable
define void @_ZN9ns16550_tC2EP31abstract_interrupt_controller_tjjj(ptr noundef nonnull align 8 dereferenceable(128) %0, ptr noundef %1, i32 noundef %2, i32 noundef %3, i32 noundef %4) unnamed_addr #3 align 2 personality ptr @__gxx_personality_v0 {
_ZNSt5queueIhSt5dequeIhSaIhEEEC2IS2_vEEv.exit:
  store ptr getelementptr inbounds ({ [7 x ptr] }, ptr @_ZTV9ns16550_t, i64 0, i32 0, i64 2), ptr %0, align 8
  %5 = getelementptr inbounds i8, ptr %0, i64 8
  store ptr %1, ptr %5, align 8
  %6 = getelementptr inbounds i8, ptr %0, i64 16
  store i32 %2, ptr %6, align 8
  %7 = getelementptr inbounds i8, ptr %0, i64 20
  store i32 %3, ptr %7, align 4
  %8 = getelementptr inbounds i8, ptr %0, i64 24
  store i32 %4, ptr %8, align 8
  %9 = getelementptr inbounds i8, ptr %0, i64 32
  tail call void @llvm.memset.p0.i64(ptr noundef nonnull align 8 dereferenceable(80) %9, i8 0, i64 80, i1 false)
  tail call void @_ZNSt11_Deque_baseIhSaIhEE17_M_initialize_mapEm(ptr noundef nonnull align 8 dereferenceable(80) %9, i64 noundef 0)
  %10 = getelementptr inbounds i8, ptr %0, i64 124
  store i32 0, ptr %10, align 4
  %11 = getelementptr inbounds i8, ptr %0, i64 114
  %12 = getelementptr inbounds i8, ptr %0, i64 112
  store i8 12, ptr %12, align 8
  store <8 x i8> <i8 1, i8 0, i8 0, i8 0, i8 8, i8 96, i8 -80, i8 0>, ptr %11, align 2
  ret void
}